; Function Attrs: inlinehint nounwind uwtable
define internal void @_ZThn16_N12_GLOBAL__N_120bv_bounds_simplifierD0Ev(ptr noundef initializes((-16, -8), (0, 8)) %0) unnamed_addr #6 align 2 {
  %2 = getelementptr inbounds i8, ptr %0, i64 -16
  store ptr getelementptr inbounds nuw inrange(-16, 72) (i8, ptr @_ZTVN12_GLOBAL__N_120bv_bounds_simplifierE, i64 16), ptr %2, align 8, !tbaa !3
  store ptr getelementptr inbounds nuw inrange(-16, 16) (i8, ptr @_ZTVN12_GLOBAL__N_120bv_bounds_simplifierE, i64 104), ptr %0, align 8, !tbaa !3
  %3 = getelementptr inbounds nuw i8, ptr %0, i64 112
  tail call void @_ZN10params_refD1Ev(ptr noundef nonnull align 8 dereferenceable(8) %3) #26
  tail call void @_ZN2bv14bv_bounds_baseD2Ev(ptr noundef nonnull align 8 dereferenceable(112) %0) #26
  tail call void @_ZdlPvm(ptr noundef nonnull align 8 dereferenceable(136) %2, i64 noundef 136) #27
  ret void
}